target datalayout = "e-m:e-p270:32:32-p271:32:32-p272:64:64-i64:64-i128:128-f80:128-n8:16:32:64-S128"
target triple = "x86_64-pc-linux-gnu"

%struct.PJconsts = type { ptr, ptr, ptr, ptr, ptr, ptr, ptr, ptr, ptr, ptr, ptr, ptr, i32, ptr, ptr, ptr, ptr, ptr, ptr, ptr, ptr, double, double, double, double, double, double, double, double, double, double, double, double, double, double, double, double, double, double, double, double, double, double, i32, i32, i32, i32, i32, i32, i32, i32, i32, i32, i32, ptr, ptr, ptr, ptr, ptr, ptr, double, double, double, double, double, double, double, double, double, double, double, i32, [7 x double], i32, ptr, ptr, double, double, i32, [4 x i8], %"class.std::shared_ptr", i8, double, i8, %"class.std::__cxx11::basic_string", %"class.std::__cxx11::basic_string", %"class.std::__cxx11::basic_string", i8, %"class.std::vector", i32, %"class.std::vector.3", i32, i8, i8, i8, ptr }
%"class.std::shared_ptr" = type { %"class.std::__shared_ptr" }
%"class.std::__shared_ptr" = type { ptr, %"class.std::__shared_count" }
%"class.std::__shared_count" = type { ptr }
%"class.std::__cxx11::basic_string" = type { %"struct.std::__cxx11::basic_string<char>::_Alloc_hider", i64, %union.anon }
%"struct.std::__cxx11::basic_string<char>::_Alloc_hider" = type { ptr }
%union.anon = type { i64, [8 x i8] }
%"class.std::vector" = type { %"struct.std::_Vector_base" }
%"struct.std::_Vector_base" = type { %"struct.std::_Vector_base<osgeo::proj::operation::GridDescription, std::allocator<osgeo::proj::operation::GridDescription>>::_Vector_impl" }
%"struct.std::_Vector_base<osgeo::proj::operation::GridDescription, std::allocator<osgeo::proj::operation::GridDescription>>::_Vector_impl" = type { %"struct.std::_Vector_base<osgeo::proj::operation::GridDescription, std::allocator<osgeo::proj::operation::GridDescription>>::_Vector_impl_data" }
%"struct.std::_Vector_base<osgeo::proj::operation::GridDescription, std::allocator<osgeo::proj::operation::GridDescription>>::_Vector_impl_data" = type { ptr, ptr, ptr }
%"class.std::vector.3" = type { %"struct.std::_Vector_base.4" }
%"struct.std::_Vector_base.4" = type { %"struct.std::_Vector_base<PJCoordOperation, std::allocator<PJCoordOperation>>::_Vector_impl" }
%"struct.std::_Vector_base<PJCoordOperation, std::allocator<PJCoordOperation>>::_Vector_impl" = type { %"struct.std::_Vector_base<PJCoordOperation, std::allocator<PJCoordOperation>>::_Vector_impl_data" }
%"struct.std::_Vector_base<PJCoordOperation, std::allocator<PJCoordOperation>>::_Vector_impl_data" = type { ptr, ptr, ptr }
%"struct.(anonymous namespace)::pj_healpix_data" = type { i32, i32, double, double, ptr }
%struct.PJ_XY = type { double, double }
%struct.PJ_LP = type { double, double }

; Function Attrs: inlinehint mustprogress nounwind uwtable
define linkonce_odr noundef double @_ZSt3powIdiEN9__gnu_cxx9__promoteIDTplcvNS1_IT_Xsr3std12__is_integerIS2_EE7__valueEE6__typeELi0EcvNS1_IT0_Xsr3std12__is_integerIS5_EE7__valueEE6__typeELi0EEXsr3std12__is_integerIS8_EE7__valueEE6__typeES2_S5_(double noundef %0, i32 noundef %1) #9 comdat {
  %3 = alloca double, align 8
  %4 = alloca i32, align 4
  store double %0, ptr %3, align 8, !tbaa !48
  store i32 %1, ptr %4, align 4, !tbaa !58
  %5 = load double, ptr %3, align 8, !tbaa !48
  %6 = load i32, ptr %4, align 4, !tbaa !58
  %7 = sitofp i32 %6 to double
  %8 = call double @pow(double noundef %5, double noundef %7) #10, !tbaa !58
  ret double %8
}

; Function Attrs: mustprogress nounwind uwtable
define internal noundef double @_ZL4signd(double noundef %0) #5 {
  %2 = alloca double, align 8
  store double %0, ptr %2, align 8, !tbaa !48
  %3 = load double, ptr %2, align 8, !tbaa !48
  %4 = fcmp ogt double %3, 0.000000e+00
  br i1 %4, label %5, label %6

5:                                                ; preds = %1
  br label %10

6:                                                ; preds = %1
  %7 = load double, ptr %2, align 8, !tbaa !48
  %8 = fcmp olt double %7, 0.000000e+00
  %9 = select i1 %8, i32 -1, i32 0
  br label %10

10:                                               ; preds = %6, %5
  %11 = phi i32 [ 1, %5 ], [ %9, %6 ]
  %12 = sitofp i32 %11 to double
  ret double %12
}

; Function Attrs: mustprogress uwtable
define internal noundef double @_ZL8auth_latP8PJconstsdi(ptr noundef %0, double noundef %1, i32 noundef %2) #0 {
  %4 = alloca double, align 8
  %5 = alloca ptr, align 8
  %6 = alloca double, align 8
  %7 = alloca i32, align 4
  %8 = alloca ptr, align 8
  %9 = alloca double, align 8
  %10 = alloca double, align 8
  %11 = alloca double, align 8
  %12 = alloca i32, align 4
  store ptr %0, ptr %5, align 8, !tbaa !3
  store double %1, ptr %6, align 8, !tbaa !48
  store i32 %2, ptr %7, align 4, !tbaa !58
  call void @llvm.lifetime.start.p0(i64 8, ptr %8) #10
  %13 = load ptr, ptr %5, align 8, !tbaa !3
  %14 = getelementptr inbounds nuw %struct.PJconsts, ptr %13, i32 0, i32 11
  %15 = load ptr, ptr %14, align 8, !tbaa !43
  store ptr %15, ptr %8, align 8, !tbaa !41
  %16 = load i32, ptr %7, align 4, !tbaa !58
  %17 = icmp eq i32 %16, 0
  br i1 %17, label %18, label %44

18:                                               ; preds = %3
  call void @llvm.lifetime.start.p0(i64 8, ptr %9) #10
  %19 = load double, ptr %6, align 8, !tbaa !48
  %20 = call double @sin(double noundef %19) #10, !tbaa !58
  %21 = load ptr, ptr %5, align 8, !tbaa !3
  %22 = getelementptr inbounds nuw %struct.PJconsts, ptr %21, i32 0, i32 26
  %23 = load double, ptr %22, align 8, !tbaa !54
  %24 = load ptr, ptr %5, align 8, !tbaa !3
  %25 = getelementptr inbounds nuw %struct.PJconsts, ptr %24, i32 0, i32 27
  %26 = load double, ptr %25, align 8, !tbaa !52
  %27 = fsub double 1.000000e+00, %26
  %28 = call noundef double @_Z7pj_qsfnddd(double noundef %20, double noundef %23, double noundef %27)
  store double %28, ptr %9, align 8, !tbaa !48
  call void @llvm.lifetime.start.p0(i64 8, ptr %10) #10
  %29 = load ptr, ptr %8, align 8, !tbaa !41
  %30 = getelementptr inbounds nuw %"struct.(anonymous namespace)::pj_healpix_data", ptr %29, i32 0, i32 3
  %31 = load double, ptr %30, align 8, !tbaa !56
  store double %31, ptr %10, align 8, !tbaa !48
  call void @llvm.lifetime.start.p0(i64 8, ptr %11) #10
  %32 = load double, ptr %9, align 8, !tbaa !48
  %33 = load double, ptr %10, align 8, !tbaa !48
  %34 = fdiv double %32, %33
  store double %34, ptr %11, align 8, !tbaa !48
  %35 = load double, ptr %11, align 8, !tbaa !48
  %36 = call double @llvm.fabs.f64(double %35)
  %37 = fcmp ogt double %36, 1.000000e+00
  br i1 %37, label %38, label %41

38:                                               ; preds = %18
  %39 = load double, ptr %11, align 8, !tbaa !48
  %40 = call noundef double @_ZL4signd(double noundef %39)
  store double %40, ptr %11, align 8, !tbaa !48
  br label %41

41:                                               ; preds = %38, %18
  %42 = load double, ptr %11, align 8, !tbaa !48
  %43 = call double @asin(double noundef %42) #10, !tbaa !58
  store double %43, ptr %4, align 8
  store i32 1, ptr %12, align 4
  call void @llvm.lifetime.end.p0(i64 8, ptr %11) #10
  call void @llvm.lifetime.end.p0(i64 8, ptr %10) #10
  call void @llvm.lifetime.end.p0(i64 8, ptr %9) #10
  br label %50

44:                                               ; preds = %3
  %45 = load double, ptr %6, align 8, !tbaa !48
  %46 = load ptr, ptr %8, align 8, !tbaa !41
  %47 = getelementptr inbounds nuw %"struct.(anonymous namespace)::pj_healpix_data", ptr %46, i32 0, i32 4
  %48 = load ptr, ptr %47, align 8, !tbaa !53
  %49 = call noundef double @_Z10pj_authlatdPd(double noundef %45, ptr noundef %48)
  store double %49, ptr %4, align 8
  store i32 1, ptr %12, align 4
  br label %50

50:                                               ; preds = %44, %41
  call void @llvm.lifetime.end.p0(i64 8, ptr %8) #10
  %51 = load double, ptr %4, align 8
  ret double %51
}

; Function Attrs: mustprogress uwtable
define internal { double, double } @_ZL30healpix_spherhealpix_e_inverse5PJ_XY(double %0, double %1) #0 {
  %3 = alloca %struct.PJ_LP, align 8
  %4 = alloca %struct.PJ_XY, align 8
  %5 = alloca double, align 8
  %6 = alloca double, align 8
  %7 = alloca double, align 8
  %8 = alloca double, align 8
  %9 = alloca double, align 8
  %10 = alloca double, align 8
  %11 = getelementptr inbounds nuw { double, double }, ptr %4, i32 0, i32 0
  store double %0, ptr %11, align 8
  %12 = getelementptr inbounds nuw { double, double }, ptr %4, i32 0, i32 1
  store double %1, ptr %12, align 8
  call void @llvm.lifetime.start.p0(i64 8, ptr %5) #10
  %13 = getelementptr inbounds nuw %struct.PJ_XY, ptr %4, i32 0, i32 0
  %14 = load double, ptr %13, align 8, !tbaa !64
  store double %14, ptr %5, align 8, !tbaa !48
  call void @llvm.lifetime.start.p0(i64 8, ptr %6) #10
  %15 = getelementptr inbounds nuw %struct.PJ_XY, ptr %4, i32 0, i32 1
  %16 = load double, ptr %15, align 8, !tbaa !66
  store double %16, ptr %6, align 8, !tbaa !48
  call void @llvm.lifetime.start.p0(i64 8, ptr %7) #10
  store double 0x3FE921FB54442D18, ptr %7, align 8, !tbaa !48
  %17 = load double, ptr %6, align 8, !tbaa !48
  %18 = call double @llvm.fabs.f64(double %17)
  %19 = load double, ptr %7, align 8, !tbaa !48
  %20 = fcmp ole double %18, %19
  br i1 %20, label %21, label %29

21:                                               ; preds = %2
  %22 = load double, ptr %5, align 8, !tbaa !48
  %23 = getelementptr inbounds nuw %struct.PJ_LP, ptr %3, i32 0, i32 0
  store double %22, ptr %23, align 8, !tbaa !67
  %24 = load double, ptr %6, align 8, !tbaa !48
  %25 = fmul double 8.000000e+00, %24
  %26 = fdiv double %25, 0x4022D97C7F3321D2
  %27 = call double @asin(double noundef %26) #10, !tbaa !58
  %28 = getelementptr inbounds nuw %struct.PJ_LP, ptr %3, i32 0, i32 1
  store double %27, ptr %28, align 8, !tbaa !61
  br label %74

29:                                               ; preds = %2
  %30 = load double, ptr %6, align 8, !tbaa !48
  %31 = call double @llvm.fabs.f64(double %30)
  %32 = fcmp olt double %31, 0x3FF921FB54442D18
  br i1 %32, label %33, label %67

33:                                               ; preds = %29
  call void @llvm.lifetime.start.p0(i64 8, ptr %8) #10
  %34 = load double, ptr %5, align 8, !tbaa !48
  %35 = fmul double 2.000000e+00, %34
  %36 = fdiv double %35, 0x400921FB54442D18
  %37 = fadd double %36, 2.000000e+00
  %38 = call double @llvm.floor.f64(double %37)
  store double %38, ptr %8, align 8, !tbaa !48
  call void @llvm.lifetime.start.p0(i64 8, ptr %9) #10
  call void @llvm.lifetime.start.p0(i64 8, ptr %10) #10
  %39 = load double, ptr %8, align 8, !tbaa !48
  %40 = fcmp oge double %39, 4.000000e+00
  br i1 %40, label %41, label %42

41:                                               ; preds = %33
  store double 3.000000e+00, ptr %8, align 8, !tbaa !48
  br label %42

42:                                               ; preds = %41, %33
  %43 = load double, ptr %8, align 8, !tbaa !48
  %44 = call double @llvm.fmuladd.f64(double 0x3FF921FB54442D18, double %43, double 0xC002D97C7F3321D2)
  store double %44, ptr %9, align 8, !tbaa !48
  %45 = load double, ptr %6, align 8, !tbaa !48
  %46 = call double @llvm.fabs.f64(double %45)
  %47 = fmul double 4.000000e+00, %46
  %48 = fdiv double %47, 0x400921FB54442D18
  %49 = fsub double 2.000000e+00, %48
  store double %49, ptr %10, align 8, !tbaa !48
  %50 = load double, ptr %9, align 8, !tbaa !48
  %51 = load double, ptr %5, align 8, !tbaa !48
  %52 = load double, ptr %9, align 8, !tbaa !48
  %53 = fsub double %51, %52
  %54 = load double, ptr %10, align 8, !tbaa !48
  %55 = fdiv double %53, %54
  %56 = fadd double %50, %55
  %57 = getelementptr inbounds nuw %struct.PJ_LP, ptr %3, i32 0, i32 0
  store double %56, ptr %57, align 8, !tbaa !67
  %58 = load double, ptr %6, align 8, !tbaa !48
  %59 = call noundef double @_ZL4signd(double noundef %58)
  %60 = load double, ptr %10, align 8, !tbaa !48
  %61 = call noundef double @_ZSt3powIdiEN9__gnu_cxx9__promoteIDTplcvNS1_IT_Xsr3std12__is_integerIS2_EE7__valueEE6__typeELi0EcvNS1_IT0_Xsr3std12__is_integerIS5_EE7__valueEE6__typeELi0EEXsr3std12__is_integerIS8_EE7__valueEE6__typeES2_S5_(double noundef %60, i32 noundef 2)
  %62 = fdiv double %61, 3.000000e+00
  %63 = fsub double 1.000000e+00, %62
  %64 = call double @asin(double noundef %63) #10, !tbaa !58
  %65 = fmul double %59, %64
  %66 = getelementptr inbounds nuw %struct.PJ_LP, ptr %3, i32 0, i32 1
  store double %65, ptr %66, align 8, !tbaa !61
  call void @llvm.lifetime.end.p0(i64 8, ptr %10) #10
  call void @llvm.lifetime.end.p0(i64 8, ptr %9) #10
  call void @llvm.lifetime.end.p0(i64 8, ptr %8) #10
  br label %73

67:                                               ; preds = %29
  %68 = getelementptr inbounds nuw %struct.PJ_LP, ptr %3, i32 0, i32 0
  store double 0xC00921FB54442D18, ptr %68, align 8, !tbaa !67
  %69 = load double, ptr %6, align 8, !tbaa !48
  %70 = call noundef double @_ZL4signd(double noundef %69)
  %71 = fmul double %70, 0x3FF921FB54442D18
  %72 = getelementptr inbounds nuw %struct.PJ_LP, ptr %3, i32 0, i32 1
  store double %71, ptr %72, align 8, !tbaa !61
  br label %73

73:                                               ; preds = %67, %42
  br label %74

74:                                               ; preds = %73, %21
  call void @llvm.lifetime.end.p0(i64 8, ptr %7) #10
  call void @llvm.lifetime.end.p0(i64 8, ptr %6) #10
  call void @llvm.lifetime.end.p0(i64 8, ptr %5) #10
  %75 = load { double, double }, ptr %3, align 8
  ret { double, double } %75
}

; Function Attrs: mustprogress uwtable
define internal { double, double } @_ZL18e_rhealpix_inverse5PJ_XYP8PJconsts(double %0, double %1, ptr noundef %2) #0 {
  %4 = alloca %struct.PJ_LP, align 8
  %5 = alloca %struct.PJ_XY, align 8
  %6 = alloca ptr, align 8
  %7 = alloca ptr, align 8
  %8 = alloca i32, align 4
  %9 = alloca %struct.PJ_XY, align 8
  %10 = alloca %struct.PJ_LP, align 8
  %11 = alloca %struct.PJ_XY, align 8
  %12 = getelementptr inbounds nuw { double, double }, ptr %5, i32 0, i32 0
  store double %0, ptr %12, align 8
  %13 = getelementptr inbounds nuw { double, double }, ptr %5, i32 0, i32 1
  store double %1, ptr %13, align 8
  store ptr %2, ptr %6, align 8, !tbaa !3
  call void @llvm.lifetime.start.p0(i64 8, ptr %7) #10
  %14 = load ptr, ptr %6, align 8, !tbaa !3
  %15 = getelementptr inbounds nuw %struct.PJconsts, ptr %14, i32 0, i32 11
  %16 = load ptr, ptr %15, align 8, !tbaa !43
  store ptr %16, ptr %7, align 8, !tbaa !41
  call void @llvm.memset.p0.i64(ptr align 8 %4, i8 0, i64 16, i1 false)
  %17 = getelementptr inbounds nuw %struct.PJ_XY, ptr %5, i32 0, i32 0
  %18 = load double, ptr %17, align 8, !tbaa !64
  %19 = getelementptr inbounds nuw %struct.PJ_XY, ptr %5, i32 0, i32 1
  %20 = load double, ptr %19, align 8, !tbaa !66
  %21 = load ptr, ptr %7, align 8, !tbaa !41
  %22 = getelementptr inbounds nuw %"struct.(anonymous namespace)::pj_healpix_data", ptr %21, i32 0, i32 0
  %23 = load i32, ptr %22, align 8, !tbaa !68
  %24 = load ptr, ptr %7, align 8, !tbaa !41
  %25 = getelementptr inbounds nuw %"struct.(anonymous namespace)::pj_healpix_data", ptr %24, i32 0, i32 1
  %26 = load i32, ptr %25, align 4, !tbaa !69
  %27 = call noundef i32 @_ZL8in_imageddiii(double noundef %18, double noundef %20, i32 noundef 1, i32 noundef %23, i32 noundef %26)
  %28 = icmp eq i32 %27, 0
  br i1 %28, label %29, label %35

29:                                               ; preds = %3
  %30 = getelementptr inbounds nuw %struct.PJ_LP, ptr %4, i32 0, i32 0
  store double 0x7FF0000000000000, ptr %30, align 8, !tbaa !67
  %31 = getelementptr inbounds nuw %struct.PJ_LP, ptr %4, i32 0, i32 1
  store double 0x7FF0000000000000, ptr %31, align 8, !tbaa !61
  %32 = load ptr, ptr %6, align 8, !tbaa !3
  %33 = getelementptr inbounds nuw %struct.PJconsts, ptr %32, i32 0, i32 0
  %34 = load ptr, ptr %33, align 8, !tbaa !45
  call void @_Z22proj_context_errno_setP6pj_ctxi(ptr noundef %34, i32 noundef 2050)
  store i32 1, ptr %8, align 4
  br label %65

35:                                               ; preds = %3
  call void @llvm.lifetime.start.p0(i64 16, ptr %9) #10
  %36 = getelementptr inbounds nuw %struct.PJ_XY, ptr %5, i32 0, i32 0
  %37 = load double, ptr %36, align 8, !tbaa !64
  %38 = getelementptr inbounds nuw %struct.PJ_XY, ptr %5, i32 0, i32 1
  %39 = load double, ptr %38, align 8, !tbaa !66
  %40 = load ptr, ptr %7, align 8, !tbaa !41
  %41 = getelementptr inbounds nuw %"struct.(anonymous namespace)::pj_healpix_data", ptr %40, i32 0, i32 0
  %42 = load i32, ptr %41, align 8, !tbaa !68
  %43 = load ptr, ptr %7, align 8, !tbaa !41
  %44 = getelementptr inbounds nuw %"struct.(anonymous namespace)::pj_healpix_data", ptr %43, i32 0, i32 1
  %45 = load i32, ptr %44, align 4, !tbaa !69
  %46 = call { double, double } @_ZL12combine_capsddiii(double noundef %37, double noundef %39, i32 noundef %42, i32 noundef %45, i32 noundef 1)
  %47 = getelementptr inbounds nuw { double, double }, ptr %9, i32 0, i32 0
  %48 = extractvalue { double, double } %46, 0
  store double %48, ptr %47, align 8
  %49 = getelementptr inbounds nuw { double, double }, ptr %9, i32 0, i32 1
  %50 = extractvalue { double, double } %46, 1
  store double %50, ptr %49, align 8
  call void @llvm.memcpy.p0.p0.i64(ptr align 8 %5, ptr align 8 %9, i64 16, i1 false), !tbaa.struct !63
  call void @llvm.lifetime.end.p0(i64 16, ptr %9) #10
  call void @llvm.lifetime.start.p0(i64 16, ptr %10) #10
  call void @llvm.memcpy.p0.p0.i64(ptr align 8 %11, ptr align 8 %5, i64 16, i1 false), !tbaa.struct !63
  %51 = getelementptr inbounds nuw { double, double }, ptr %11, i32 0, i32 0
  %52 = load double, ptr %51, align 8
  %53 = getelementptr inbounds nuw { double, double }, ptr %11, i32 0, i32 1
  %54 = load double, ptr %53, align 8
  %55 = call { double, double } @_ZL30healpix_spherhealpix_e_inverse5PJ_XY(double %52, double %54)
  %56 = getelementptr inbounds nuw { double, double }, ptr %10, i32 0, i32 0
  %57 = extractvalue { double, double } %55, 0
  store double %57, ptr %56, align 8
  %58 = getelementptr inbounds nuw { double, double }, ptr %10, i32 0, i32 1
  %59 = extractvalue { double, double } %55, 1
  store double %59, ptr %58, align 8
  call void @llvm.memcpy.p0.p0.i64(ptr align 8 %4, ptr align 8 %10, i64 16, i1 false), !tbaa.struct !63
  call void @llvm.lifetime.end.p0(i64 16, ptr %10) #10
  %60 = load ptr, ptr %6, align 8, !tbaa !3
  %61 = getelementptr inbounds nuw %struct.PJ_LP, ptr %4, i32 0, i32 1
  %62 = load double, ptr %61, align 8, !tbaa !61
  %63 = call noundef double @_ZL8auth_latP8PJconstsdi(ptr noundef %60, double noundef %62, i32 noundef 1)
  %64 = getelementptr inbounds nuw %struct.PJ_LP, ptr %4, i32 0, i32 1
  store double %63, ptr %64, align 8, !tbaa !61
  store i32 1, ptr %8, align 4
  br label %65

65:                                               ; preds = %35, %29
  call void @llvm.lifetime.end.p0(i64 8, ptr %7) #10
  %66 = load { double, double }, ptr %4, align 8
  ret { double, double } %66
}