; Function Attrs: mustprogress uwtable
define internal { double, double } @_ZL18e_rhealpix_inverse5PJ_XYP8PJconsts(double %0, double %1, ptr noundef readonly captures(none) %2) #0 {
  %4 = getelementptr inbounds nuw i8, ptr %2, i64 88
  %5 = load ptr, ptr %4, align 8, !tbaa !40
  %6 = load i32, ptr %5, align 8, !tbaa !60
  %7 = getelementptr inbounds nuw i8, ptr %5, i64 4
  %8 = load i32, ptr %7, align 4, !tbaa !61
  %9 = tail call fastcc noundef i32 @_ZL8in_imageddiii(double noundef %0, double noundef %1, i32 noundef 1, i32 noundef %6, i32 noundef %8)
  %10 = icmp eq i32 %9, 0
  br i1 %10, label %11, label %13

11:                                               ; preds = %3
  %12 = load ptr, ptr %2, align 8, !tbaa !42
  tail call void @_Z22proj_context_errno_setP6pj_ctxi(ptr noundef %12, i32 noundef 2050)
  br label %56

13:                                               ; preds = %3
  %14 = tail call fastcc { double, double } @_ZL12combine_capsddiii(double noundef %0, double noundef %1, i32 noundef %6, i32 noundef %8, i32 noundef 1)
  %15 = extractvalue { double, double } %14, 0
  %16 = extractvalue { double, double } %14, 1
  %17 = tail call double @llvm.fabs.f64(double %16)
  %18 = fcmp ugt double %17, 0x3FE921FB54442D18
  br i1 %18, label %23, label %19

19:                                               ; preds = %13
  %20 = fmul double %16, 8.000000e+00
  %21 = fdiv double %20, 0x4022D97C7F3321D2
  %22 = tail call double @asin(double noundef %21) #11, !tbaa !53
  br label %_ZL30healpix_spherhealpix_e_inverse5PJ_XY.exit

23:                                               ; preds = %13
  %24 = fcmp olt double %17, 0x3FF921FB54442D18
  br i1 %24, label %25, label %47

25:                                               ; preds = %23
  %26 = fmul double %15, 2.000000e+00
  %27 = fdiv double %26, 0x400921FB54442D18
  %28 = fadd double %27, 2.000000e+00
  %29 = tail call double @llvm.floor.f64(double %28)
  %30 = fcmp ult double %29, 4.000000e+00
  %31 = tail call double @llvm.fmuladd.f64(double %29, double 0x3FF921FB54442D18, double 0xC002D97C7F3321D2)
  %32 = select i1 %30, double %31, double 0x4002D97C7F3321D2
  %33 = fmul double %17, 4.000000e+00
  %34 = fdiv double %33, 0x400921FB54442D18
  %35 = fsub double 2.000000e+00, %34
  %36 = fsub double %15, %32
  %37 = fdiv double %36, %35
  %38 = fadd double %32, %37
  %39 = fcmp ogt double %16, 0.000000e+00
  %40 = fcmp olt double %16, 0.000000e+00
  %41 = sitofp i1 %40 to double
  %42 = select i1 %39, double 1.000000e+00, double %41
  %square.i = fmul double %35, %35
  %43 = fdiv double %square.i, 3.000000e+00
  %44 = fsub double 1.000000e+00, %43
  %45 = tail call double @asin(double noundef %44) #11, !tbaa !53
  %46 = fmul double %42, %45
  br label %_ZL30healpix_spherhealpix_e_inverse5PJ_XY.exit

47:                                               ; preds = %23
  %48 = fcmp ogt double %16, 0.000000e+00
  %49 = fcmp olt double %16, 0.000000e+00
  %50 = sitofp i1 %49 to double
  %51 = fmul double %50, 0x3FF921FB54442D18
  %52 = select i1 %48, double 0x3FF921FB54442D18, double %51
  br label %_ZL30healpix_spherhealpix_e_inverse5PJ_XY.exit

_ZL30healpix_spherhealpix_e_inverse5PJ_XY.exit:   ; preds = %19, %25, %47
  %.sroa.016.0.i = phi double [ %15, %19 ], [ %38, %25 ], [ 0xC00921FB54442D18, %47 ]
  %.sroa.4.0.i = phi double [ %22, %19 ], [ %46, %25 ], [ %52, %47 ]
  %53 = getelementptr inbounds nuw i8, ptr %5, i64 24
  %54 = load ptr, ptr %53, align 8, !tbaa !48
  %55 = tail call noundef double @_Z10pj_authlatdPd(double noundef %.sroa.4.0.i, ptr noundef %54)
  br label %56

56:                                               ; preds = %_ZL30healpix_spherhealpix_e_inverse5PJ_XY.exit, %11
  %.sroa.414.0 = phi double [ 0x7FF0000000000000, %11 ], [ %55, %_ZL30healpix_spherhealpix_e_inverse5PJ_XY.exit ]
  %.sroa.013.0 = phi double [ 0x7FF0000000000000, %11 ], [ %.sroa.016.0.i, %_ZL30healpix_spherhealpix_e_inverse5PJ_XY.exit ]
  %.fca.0.insert = insertvalue { double, double } poison, double %.sroa.013.0, 0
  %.fca.1.insert = insertvalue { double, double } %.fca.0.insert, double %.sroa.414.0, 1
  ret { double, double } %.fca.1.insert
}